target datalayout = "e-m:e-p270:32:32-p271:32:32-p272:64:64-i64:64-i128:128-f80:128-n8:16:32:64-S128"
target triple = "x86_64-pc-linux-gnu"

%struct._VAConfigAttrib = type { i32, i32 }
%struct.AVCodecContext = type { ptr, i32, i32, ptr, i32, i32, ptr, ptr, ptr, i64, i32, i32, ptr, i32, %struct.AVRational, %struct.AVRational, %struct.AVRational, i32, i32, i32, i32, i32, %struct.AVRational, i32, i32, i32, i32, i32, i32, i32, i32, i32, i32, i32, ptr, ptr, i32, float, float, float, float, float, float, float, float, float, i32, i32, i32, i32, i32, i32, i32, i32, i32, i32, i32, i32, ptr, ptr, ptr, i32, i32, i32, i32, i32, i32, i32, i32, i32, i32, %struct.AVChannelLayout, i32, i32, i32, i32, i32, i32, i32, i32, ptr, i32, i32, i32, float, float, i32, i32, i32, i32, i32, ptr, i64, i64, float, float, i32, i32, ptr, ptr, i32, i32, i32, i32, i32, ptr, ptr, ptr, ptr, i32, i32, [8 x i64], i32, i32, i32, i32, i32, i32, i32, ptr, ptr, i32, i32, i32, i32, i32, i32, i32, i32, i32, i32, ptr, ptr, i32, i32, ptr, ptr, ptr, ptr, i32, i32, i64, i32, i32, i64, ptr, i64, ptr, i32, ptr, i32 }
%struct.AVRational = type { i32, i32 }
%struct.AVChannelLayout = type { i32, i32, %union.anon, ptr }
%union.anon = type { i64 }
%struct.VAAPIEncodeContext = type { %struct.FFHWBaseEncodeContext, ptr, i32, i32, i32, i32, i32, i32, ptr, ptr, i32, i32, i32, i32, i32, i32, [4 x %struct._VAConfigAttrib], i32, i32, i32, ptr, ptr, [4 x i32], [4 x ptr], [4 x i64], i32, %struct._VAEncMiscParameterRateControl, %struct._VAEncMiscParameterHRD, %struct._VAEncMiscParameterFrameRate, %struct._VAEncMiscParameterBufferMaxFrameSize, %struct._VAEncMiscParameterBufferQualityLevel, ptr, ptr, i32, i32, i32, i32, i32, i32, [20 x i32], [22 x i32], [21 x i32], [23 x i32], i32, i32, ptr, i32, i32 }
%struct.FFHWBaseEncodeContext = type { ptr, ptr, ptr, i32, i32, i32, i32, i32, i32, ptr, ptr, ptr, ptr, ptr, ptr, ptr, ptr, [2 x ptr], i32, i64, i64, i64, i64, i64, i64, i64, [112 x i64], i32, i32, i32, i32, i32, i32, i32, i32, i32, i32, i32, i32, i32, i32, i32, i32, ptr, i32, ptr, i32, ptr }
%struct._VAEncMiscParameterRateControl = type { i32, i32, i32, i32, i32, i32, %union.anon.0, i32, i32, i32, i32, [4 x i32] }
%union.anon.0 = type { %struct.anon }
%struct.anon = type { i32 }
%struct._VAEncMiscParameterHRD = type { i32, i32, [4 x i32] }
%struct._VAEncMiscParameterFrameRate = type { i32, %union.anon.1, [4 x i32] }
%union.anon.1 = type { %struct.anon.2 }
%struct.anon.2 = type { i32 }
%struct._VAEncMiscParameterBufferMaxFrameSize = type { i32, i32, [4 x i32] }
%struct._VAEncMiscParameterBufferQualityLevel = type { i32, [4 x i32] }
%struct.AVVAAPIDeviceContext = type { ptr, i32 }

@__const.vaapi_encode_init_quality.attr = private unnamed_addr constant %struct._VAConfigAttrib { i32 21, i32 0 }, align 4
@.str.152 = private unnamed_addr constant [52 x i8] c"Failed to query quality config attribute: %d (%s).\0A\00", align 1
@.str.153 = private unnamed_addr constant [69 x i8] c"Quality attribute is not supported: will use default quality level.\0A\00", align 1
@.str.154 = private unnamed_addr constant [55 x i8] c"Invalid quality level: valid range is 0-%d, using %d.\0A\00", align 1

; Function Attrs: cold nounwind optsize uwtable
define internal i32 @vaapi_encode_init_quality(ptr noundef %0) #2 {
  %2 = alloca i32, align 4
  %3 = alloca ptr, align 8
  %4 = alloca ptr, align 8
  %5 = alloca i32, align 4
  %6 = alloca %struct._VAConfigAttrib, align 4
  %7 = alloca i32, align 4
  %8 = alloca i32, align 4
  %9 = alloca %struct._VAEncMiscParameterBufferQualityLevel, align 4
  store ptr %0, ptr %3, align 8, !tbaa !4
  call void @llvm.lifetime.start.p0(i64 8, ptr %4) #10
  %10 = load ptr, ptr %3, align 8, !tbaa !4
  %11 = getelementptr inbounds nuw %struct.AVCodecContext, ptr %10, i32 0, i32 6
  %12 = load ptr, ptr %11, align 8, !tbaa !11
  store ptr %12, ptr %4, align 8, !tbaa !33
  call void @llvm.lifetime.start.p0(i64 4, ptr %5) #10
  call void @llvm.lifetime.start.p0(i64 8, ptr %6) #10
  call void @llvm.memcpy.p0.p0.i64(ptr align 4 %6, ptr align 4 @__const.vaapi_encode_init_quality.attr, i64 8, i1 false)
  call void @llvm.lifetime.start.p0(i64 4, ptr %7) #10
  %13 = load ptr, ptr %3, align 8, !tbaa !4
  %14 = getelementptr inbounds nuw %struct.AVCodecContext, ptr %13, i32 0, i32 83
  %15 = load i32, ptr %14, align 8, !tbaa !73
  store i32 %15, ptr %7, align 4, !tbaa !37
  %16 = load ptr, ptr %4, align 8, !tbaa !33
  %17 = getelementptr inbounds nuw %struct.VAAPIEncodeContext, ptr %16, i32 0, i32 20
  %18 = load ptr, ptr %17, align 8, !tbaa !62
  %19 = getelementptr inbounds nuw %struct.AVVAAPIDeviceContext, ptr %18, i32 0, i32 0
  %20 = load ptr, ptr %19, align 8, !tbaa !75
  %21 = load ptr, ptr %4, align 8, !tbaa !33
  %22 = getelementptr inbounds nuw %struct.VAAPIEncodeContext, ptr %21, i32 0, i32 11
  %23 = load i32, ptr %22, align 4, !tbaa !77
  %24 = load ptr, ptr %4, align 8, !tbaa !33
  %25 = getelementptr inbounds nuw %struct.VAAPIEncodeContext, ptr %24, i32 0, i32 12
  %26 = load i32, ptr %25, align 8, !tbaa !78
  %27 = call i32 @vaGetConfigAttributes(ptr noundef %20, i32 noundef %23, i32 noundef %26, ptr noundef %6, i32 noundef 1)
  store i32 %27, ptr %5, align 4, !tbaa !37
  %28 = load i32, ptr %5, align 4, !tbaa !37
  %29 = icmp ne i32 %28, 0
  br i1 %29, label %30, label %35

30:                                               ; preds = %1
  %31 = load ptr, ptr %3, align 8, !tbaa !4
  %32 = load i32, ptr %5, align 4, !tbaa !37
  %33 = load i32, ptr %5, align 4, !tbaa !37
  %34 = call ptr @vaErrorStr(i32 noundef %33)
  call void (ptr, i32, ptr, ...) @av_log(ptr noundef %31, i32 noundef 16, ptr noundef @.str.152, i32 noundef %32, ptr noundef %34)
  store i32 -542398533, ptr %2, align 4
  store i32 1, ptr %8, align 4
  br label %67

35:                                               ; preds = %1
  %36 = getelementptr inbounds nuw %struct._VAConfigAttrib, ptr %6, i32 0, i32 1
  %37 = load i32, ptr %36, align 4, !tbaa !149
  %38 = icmp eq i32 %37, -2147483648
  br i1 %38, label %39, label %45

39:                                               ; preds = %35
  %40 = load i32, ptr %7, align 4, !tbaa !37
  %41 = icmp ne i32 %40, 0
  br i1 %41, label %42, label %44

42:                                               ; preds = %39
  %43 = load ptr, ptr %3, align 8, !tbaa !4
  call void (ptr, i32, ptr, ...) @av_log(ptr noundef %43, i32 noundef 24, ptr noundef @.str.153)
  br label %44

44:                                               ; preds = %42, %39
  br label %66

45:                                               ; preds = %35
  %46 = load i32, ptr %7, align 4, !tbaa !37
  %47 = getelementptr inbounds nuw %struct._VAConfigAttrib, ptr %6, i32 0, i32 1
  %48 = load i32, ptr %47, align 4, !tbaa !149
  %49 = icmp ugt i32 %46, %48
  br i1 %49, label %50, label %58

50:                                               ; preds = %45
  %51 = load ptr, ptr %3, align 8, !tbaa !4
  %52 = getelementptr inbounds nuw %struct._VAConfigAttrib, ptr %6, i32 0, i32 1
  %53 = load i32, ptr %52, align 4, !tbaa !149
  %54 = getelementptr inbounds nuw %struct._VAConfigAttrib, ptr %6, i32 0, i32 1
  %55 = load i32, ptr %54, align 4, !tbaa !149
  call void (ptr, i32, ptr, ...) @av_log(ptr noundef %51, i32 noundef 24, ptr noundef @.str.154, i32 noundef %53, i32 noundef %55)
  %56 = getelementptr inbounds nuw %struct._VAConfigAttrib, ptr %6, i32 0, i32 1
  %57 = load i32, ptr %56, align 4, !tbaa !149
  store i32 %57, ptr %7, align 4, !tbaa !37
  br label %58

58:                                               ; preds = %50, %45
  %59 = load ptr, ptr %4, align 8, !tbaa !33
  %60 = getelementptr inbounds nuw %struct.VAAPIEncodeContext, ptr %59, i32 0, i32 30
  call void @llvm.memset.p0.i64(ptr align 4 %9, i8 0, i64 20, i1 false)
  %61 = getelementptr inbounds nuw %struct._VAEncMiscParameterBufferQualityLevel, ptr %9, i32 0, i32 0
  %62 = load i32, ptr %7, align 4, !tbaa !37
  store i32 %62, ptr %61, align 4, !tbaa !211
  call void @llvm.memcpy.p0.p0.i64(ptr align 8 %60, ptr align 4 %9, i64 20, i1 false), !tbaa.struct !212
  %63 = load ptr, ptr %3, align 8, !tbaa !4
  %64 = load ptr, ptr %4, align 8, !tbaa !33
  %65 = getelementptr inbounds nuw %struct.VAAPIEncodeContext, ptr %64, i32 0, i32 30
  call void @vaapi_encode_add_global_param(ptr noundef %63, i32 noundef 6, ptr noundef %65, i64 noundef 20) #11
  br label %66

66:                                               ; preds = %58, %44
  store i32 0, ptr %2, align 4
  store i32 1, ptr %8, align 4
  br label %67

67:                                               ; preds = %66, %30
  call void @llvm.lifetime.end.p0(i64 4, ptr %7) #10
  call void @llvm.lifetime.end.p0(i64 8, ptr %6) #10
  call void @llvm.lifetime.end.p0(i64 4, ptr %5) #10
  call void @llvm.lifetime.end.p0(i64 8, ptr %4) #10
  %68 = load i32, ptr %2, align 4
  ret i32 %68
}