; Function Attrs: cold nounwind optsize uwtable
define internal fastcc range(i32 -542398533, 1) i32 @vaapi_encode_init_quality(ptr noundef %0) unnamed_addr #2 {
  %2 = alloca %struct._VAConfigAttrib, align 8
  %3 = getelementptr inbounds nuw i8, ptr %0, i64 32
  %4 = load ptr, ptr %3, align 8, !tbaa !4
  call void @llvm.lifetime.start.p0(i64 8, ptr nonnull %2) #9
  store i64 21, ptr %2, align 8
  %5 = getelementptr inbounds nuw i8, ptr %0, i64 424
  %6 = load i32, ptr %5, align 8, !tbaa !63
  %7 = getelementptr inbounds nuw i8, ptr %4, i64 1312
  %8 = load ptr, ptr %7, align 8, !tbaa !52
  %9 = load ptr, ptr %8, align 8, !tbaa !65
  %10 = getelementptr inbounds nuw i8, ptr %4, i64 1244
  %11 = load i32, ptr %10, align 4, !tbaa !67
  %12 = getelementptr inbounds nuw i8, ptr %4, i64 1248
  %13 = load i32, ptr %12, align 8, !tbaa !68
  %14 = call i32 @vaGetConfigAttributes(ptr noundef %9, i32 noundef %11, i32 noundef %13, ptr noundef nonnull %2, i32 noundef 1) #9
  %.not = icmp eq i32 %14, 0
  br i1 %.not, label %17, label %15

15:                                               ; preds = %1
  %16 = call ptr @vaErrorStr(i32 noundef %14) #9
  call void (ptr, i32, ptr, ...) @av_log(ptr noundef nonnull %0, i32 noundef 16, ptr noundef nonnull @.str.152, i32 noundef %14, ptr noundef %16) #9
  br label %29

17:                                               ; preds = %1
  %18 = getelementptr inbounds nuw i8, ptr %2, i64 4
  %19 = load i32, ptr %18, align 4, !tbaa !132
  %20 = icmp eq i32 %19, -2147483648
  br i1 %20, label %21, label %23

21:                                               ; preds = %17
  %.not21 = icmp eq i32 %6, 0
  br i1 %.not21, label %29, label %22

22:                                               ; preds = %21
  call void (ptr, i32, ptr, ...) @av_log(ptr noundef nonnull %0, i32 noundef 24, ptr noundef nonnull @.str.153) #9
  br label %29

23:                                               ; preds = %17
  %24 = icmp ugt i32 %6, %19
  br i1 %24, label %25, label %27

25:                                               ; preds = %23
  call void (ptr, i32, ptr, ...) @av_log(ptr noundef nonnull %0, i32 noundef 24, ptr noundef nonnull @.str.154, i32 noundef %19, i32 noundef %19) #9
  %26 = load i32, ptr %18, align 4, !tbaa !132
  br label %27

27:                                               ; preds = %25, %23
  %.0 = phi i32 [ %26, %25 ], [ %6, %23 ]
  %28 = getelementptr inbounds nuw i8, ptr %4, i64 1544
  store i32 %.0, ptr %28, align 8, !tbaa !109
  %.sroa.3.0..sroa_idx = getelementptr inbounds nuw i8, ptr %4, i64 1548
  call void @llvm.memset.p0.i64(ptr noundef nonnull align 4 dereferenceable(16) %.sroa.3.0..sroa_idx, i8 0, i64 16, i1 false)
  %.val = load ptr, ptr %3, align 8, !tbaa !4
  call fastcc void @vaapi_encode_add_global_param(ptr %.val, i32 noundef 6, ptr noundef nonnull %28, i64 noundef 20) #10
  br label %29

29:                                               ; preds = %27, %22, %21, %15
  %.017 = phi i32 [ -542398533, %15 ], [ 0, %21 ], [ 0, %22 ], [ 0, %27 ]
  call void @llvm.lifetime.end.p0(i64 8, ptr nonnull %2) #9
  ret i32 %.017
}